; Function Attrs: mustprogress nofree norecurse nosync nounwind willreturn memory(readwrite, argmem: write, inaccessiblemem: none) uwtable
define hidden void @except_setup_clean(ptr noundef initializes((0, 12), (16, 24)) %0, ptr noundef initializes((0, 16)) %1, ptr noundef %2, ptr noundef %3) local_unnamed_addr #1 {
  %5 = getelementptr inbounds nuw i8, ptr %0, i64 8
  store i32 0, ptr %5, align 8
  store ptr %2, ptr %1, align 8
  %6 = getelementptr inbounds nuw i8, ptr %1, i64 8
  store ptr %3, ptr %6, align 8
  %7 = getelementptr inbounds nuw i8, ptr %0, i64 16
  store ptr %1, ptr %7, align 8
  %8 = tail call align 8 ptr @llvm.threadlocal.address.p0(ptr align 8 @stack_top)
  %9 = load ptr, ptr %8, align 8
  store ptr %9, ptr %0, align 8
  store ptr %0, ptr %8, align 8
  ret void
}